; Function Attrs: mustprogress nounwind uwtable
define dso_local void @_ZN4base5debug21GlobalActivityTracker22ManagedActivityTrackerD0Ev(ptr noundef nonnull align 8 dereferenceable(48) %this) unnamed_addr #4 align 2 personality ptr @__gxx_personality_v0 {
entry:
  store ptr getelementptr inbounds ({ [4 x ptr] }, ptr @_ZTVN4base5debug21GlobalActivityTracker22ManagedActivityTrackerE, i64 0, i32 0, i64 2), ptr %this, align 8
  %0 = load ptr, ptr @_ZN4base5debug21GlobalActivityTracker10g_tracker_E, align 8
  %mem_reference_.i.i = getelementptr inbounds i8, ptr %this, i64 32
  %1 = load i32, ptr %mem_reference_.i.i, align 8
  %mem_base_.i.i = getelementptr inbounds i8, ptr %this, i64 40
  %2 = load ptr, ptr %mem_base_.i.i, align 8
  %stack_memory_size_.i.i = getelementptr inbounds i8, ptr %0, i64 8
  %3 = load i64, ptr %stack_memory_size_.i.i, align 8
  tail call void @llvm.memset.p0.i64(ptr align 1 %2, i8 0, i64 %3, i1 false)
  %thread_tracker_count_.i.i = getelementptr inbounds i8, ptr %0, i64 24
  %4 = atomicrmw sub ptr %thread_tracker_count_.i.i, i32 1 monotonic, align 4
  %5 = load ptr, ptr %0, align 8
  %call6.i1.i = invoke noundef zeroext i1 @_ZN4base25PersistentMemoryAllocator10ChangeTypeEjjj(ptr noundef nonnull align 8 dereferenceable(48) %5, i32 noundef %1, i32 noundef 1057125116, i32 noundef 1567850928)
          to label %call6.i.noexc.i unwind label %terminate.lpad.i

call6.i.noexc.i:                                  ; preds = %entry
  %lock_.i.i.i = getelementptr inbounds i8, ptr %0, i64 56
  invoke void @_ZN4base8internal8LockImpl4LockEv(ptr noundef nonnull align 8 dereferenceable(40) %lock_.i.i.i)
          to label %.noexc.i unwind label %terminate.lpad.i

.noexc.i:                                         ; preds = %call6.i.noexc.i
  %available_memories_.i.i = getelementptr inbounds i8, ptr %0, i64 32
  %used_.i.i.i = getelementptr inbounds i8, ptr %0, i64 48
  %6 = load i64, ptr %used_.i.i.i, align 8
  %7 = load i64, ptr %available_memories_.i.i, align 8
  %cmp.i.not.i.i = icmp eq i64 %6, %7
  br i1 %cmp.i.not.i.i, label %cleanup.i.i.i, label %if.end.i.i.i

if.end.i.i.i:                                     ; preds = %.noexc.i
  %values_.i.i.i = getelementptr inbounds i8, ptr %0, i64 40
  %inc.i.i.i = add i64 %6, 1
  store i64 %inc.i.i.i, ptr %used_.i.i.i, align 8
  %8 = load ptr, ptr %values_.i.i.i, align 8
  %arrayidx.i.i.i.i = getelementptr inbounds i32, ptr %8, i64 %6
  store i32 %1, ptr %arrayidx.i.i.i.i, align 4
  br label %cleanup.i.i.i

cleanup.i.i.i:                                    ; preds = %if.end.i.i.i, %.noexc.i
  invoke void @_ZN4base8internal8LockImpl6UnlockEv(ptr noundef nonnull align 8 dereferenceable(40) %lock_.i.i.i)
          to label %_ZN4base5debug21GlobalActivityTracker22ManagedActivityTrackerD2Ev.exit unwind label %terminate.lpad.i.i.i.i

terminate.lpad.i.i.i.i:                           ; preds = %cleanup.i.i.i
  %9 = landingpad { ptr, i32 }
          catch ptr null
  %10 = extractvalue { ptr, i32 } %9, 0
  tail call void @__clang_call_terminate(ptr %10) #21
  unreachable

terminate.lpad.i:                                 ; preds = %call6.i.noexc.i, %entry
  %11 = landingpad { ptr, i32 }
          catch ptr null
  %12 = extractvalue { ptr, i32 } %11, 0
  tail call void @__clang_call_terminate(ptr %12) #21
  unreachable

_ZN4base5debug21GlobalActivityTracker22ManagedActivityTrackerD2Ev.exit: ; preds = %cleanup.i.i.i
  tail call void @_ZdlPv(ptr noundef nonnull %this) #18
  ret void
}